target datalayout = "e-m:e-p270:32:32-p271:32:32-p272:64:64-i64:64-i128:128-f80:128-n8:16:32:64-S128"
target triple = "x86_64-pc-linux-gnu"

%struct.ssl_st = type { i32, i16, i16, ptr, ptr, ptr, ptr, ptr, i32, i32, ptr, ptr, i32, i32, ptr, ptr, ptr, ptr, ptr, ptr, ptr, ptr, i32, i32, [32 x i8], ptr, ptr, ptr, ptr, ptr, ptr, ptr, i64, %struct.crypto_ex_data_st, ptr, i32, i32, i32, i32, i16, ptr, i32, i64, ptr, ptr, ptr, ptr, ptr, ptr, i32, i32, ptr, ptr, i8, i8, i32 }
%struct.crypto_ex_data_st = type { ptr }
%struct.ssl3_state_st = type { [8 x i8], [8 x i8], [32 x i8], [32 x i8], i8, i8, %struct.ssl3_buffer_st, %struct.ssl3_buffer_st, %struct.ssl3_record_st, i8, i32, i32, i32, i32, ptr, ptr, %struct.env_md_ctx_st, %struct.env_md_ctx_st, i8, i32, [2 x i8], i32, i8, i8, ptr, ptr, ptr, %struct.anon, [64 x i8], i8, [64 x i8], i8, i32, i32, ptr, i64, ptr, i64, i8, [64 x i8] }
%struct.ssl3_buffer_st = type { ptr, i16, i16, i16 }
%struct.ssl3_record_st = type { i8, i16, ptr }
%struct.env_md_ctx_st = type { ptr, ptr, ptr, ptr }
%struct.anon = type { [64 x i8], i32, [64 x i8], i32, i64, i32, ptr, i32, i32, %union.anon, %union.anon.0, i8, i32, ptr, ptr, i64, ptr, i8, i8, i8, i8, i32, i8, ptr, i64, i8, ptr, i8, i8, i8, %struct.ssl_ecdh_ctx_st, ptr, i16 }
%union.anon = type { i32 }
%union.anon.0 = type { i16 }
%struct.ssl_ecdh_ctx_st = type { ptr, ptr }
%struct.cbb_st = type { ptr, ptr, i64, i8, i8, i8 }

; Function Attrs: nounwind uwtable
define internal i32 @ext_alpn_add_serverhello(ptr noundef %0, ptr noundef %1) #0 {
  %3 = alloca i32, align 4
  %4 = alloca ptr, align 8
  %5 = alloca ptr, align 8
  %6 = alloca %struct.cbb_st, align 8
  %7 = alloca %struct.cbb_st, align 8
  %8 = alloca %struct.cbb_st, align 8
  %9 = alloca i32, align 4
  store ptr %0, ptr %4, align 8, !tbaa !69
  store ptr %1, ptr %5, align 8, !tbaa !128
  %10 = load ptr, ptr %4, align 8, !tbaa !69
  %11 = getelementptr inbounds nuw %struct.ssl_st, ptr %10, i32 0, i32 14
  %12 = load ptr, ptr %11, align 8, !tbaa !75
  %13 = getelementptr inbounds nuw %struct.ssl3_state_st, ptr %12, i32 0, i32 36
  %14 = load ptr, ptr %13, align 8, !tbaa !193
  %15 = icmp eq ptr %14, null
  br i1 %15, label %16, label %17

16:                                               ; preds = %2
  store i32 1, ptr %3, align 4
  br label %51

17:                                               ; preds = %2
  call void @llvm.lifetime.start.p0(i64 32, ptr %6) #8
  call void @llvm.lifetime.start.p0(i64 32, ptr %7) #8
  call void @llvm.lifetime.start.p0(i64 32, ptr %8) #8
  %18 = load ptr, ptr %5, align 8, !tbaa !128
  %19 = call i32 @CBB_add_u16(ptr noundef %18, i16 noundef zeroext 16)
  %20 = icmp ne i32 %19, 0
  br i1 %20, label %21, label %48

21:                                               ; preds = %17
  %22 = load ptr, ptr %5, align 8, !tbaa !128
  %23 = call i32 @CBB_add_u16_length_prefixed(ptr noundef %22, ptr noundef %6)
  %24 = icmp ne i32 %23, 0
  br i1 %24, label %25, label %48

25:                                               ; preds = %21
  %26 = call i32 @CBB_add_u16_length_prefixed(ptr noundef %6, ptr noundef %7)
  %27 = icmp ne i32 %26, 0
  br i1 %27, label %28, label %48

28:                                               ; preds = %25
  %29 = call i32 @CBB_add_u8_length_prefixed(ptr noundef %7, ptr noundef %8)
  %30 = icmp ne i32 %29, 0
  br i1 %30, label %31, label %48

31:                                               ; preds = %28
  %32 = load ptr, ptr %4, align 8, !tbaa !69
  %33 = getelementptr inbounds nuw %struct.ssl_st, ptr %32, i32 0, i32 14
  %34 = load ptr, ptr %33, align 8, !tbaa !75
  %35 = getelementptr inbounds nuw %struct.ssl3_state_st, ptr %34, i32 0, i32 36
  %36 = load ptr, ptr %35, align 8, !tbaa !193
  %37 = load ptr, ptr %4, align 8, !tbaa !69
  %38 = getelementptr inbounds nuw %struct.ssl_st, ptr %37, i32 0, i32 14
  %39 = load ptr, ptr %38, align 8, !tbaa !75
  %40 = getelementptr inbounds nuw %struct.ssl3_state_st, ptr %39, i32 0, i32 37
  %41 = load i64, ptr %40, align 8, !tbaa !207
  %42 = call i32 @CBB_add_bytes(ptr noundef %8, ptr noundef %36, i64 noundef %41)
  %43 = icmp ne i32 %42, 0
  br i1 %43, label %44, label %48

44:                                               ; preds = %31
  %45 = load ptr, ptr %5, align 8, !tbaa !128
  %46 = call i32 @CBB_flush(ptr noundef %45)
  %47 = icmp ne i32 %46, 0
  br i1 %47, label %49, label %48

48:                                               ; preds = %44, %31, %28, %25, %21, %17
  store i32 0, ptr %3, align 4
  store i32 1, ptr %9, align 4
  br label %50

49:                                               ; preds = %44
  store i32 1, ptr %3, align 4
  store i32 1, ptr %9, align 4
  br label %50

50:                                               ; preds = %49, %48
  call void @llvm.lifetime.end.p0(i64 32, ptr %8) #8
  call void @llvm.lifetime.end.p0(i64 32, ptr %7) #8
  call void @llvm.lifetime.end.p0(i64 32, ptr %6) #8
  br label %51

51:                                               ; preds = %50, %16
  %52 = load i32, ptr %3, align 4
  ret i32 %52
}