; Function Attrs: nounwind uwtable
define internal range(i32 0, 2) i32 @ext_alpn_add_serverhello(ptr noundef readonly captures(none) %0, ptr noundef %1) #0 {
  %3 = alloca %struct.cbb_st, align 8
  %4 = alloca %struct.cbb_st, align 8
  %5 = alloca %struct.cbb_st, align 8
  %6 = getelementptr inbounds nuw i8, ptr %0, i64 80
  %7 = load ptr, ptr %6, align 8, !tbaa !58
  %8 = getelementptr inbounds nuw i8, ptr %7, i64 752
  %9 = load ptr, ptr %8, align 8, !tbaa !162
  %10 = icmp eq ptr %9, null
  br i1 %10, label %29, label %11

11:                                               ; preds = %2
  call void @llvm.lifetime.start.p0(i64 32, ptr nonnull %3) #21
  call void @llvm.lifetime.start.p0(i64 32, ptr nonnull %4) #21
  call void @llvm.lifetime.start.p0(i64 32, ptr nonnull %5) #21
  %12 = tail call i32 @CBB_add_u16(ptr noundef %1, i16 noundef zeroext 16) #21
  %.not = icmp eq i32 %12, 0
  br i1 %.not, label %28, label %13

13:                                               ; preds = %11
  %14 = call i32 @CBB_add_u16_length_prefixed(ptr noundef %1, ptr noundef nonnull %3) #21
  %.not6 = icmp eq i32 %14, 0
  br i1 %.not6, label %28, label %15

15:                                               ; preds = %13
  %16 = call i32 @CBB_add_u16_length_prefixed(ptr noundef nonnull %3, ptr noundef nonnull %4) #21
  %.not7 = icmp eq i32 %16, 0
  br i1 %.not7, label %28, label %17

17:                                               ; preds = %15
  %18 = call i32 @CBB_add_u8_length_prefixed(ptr noundef nonnull %4, ptr noundef nonnull %5) #21
  %.not8 = icmp eq i32 %18, 0
  br i1 %.not8, label %28, label %19

19:                                               ; preds = %17
  %20 = load ptr, ptr %6, align 8, !tbaa !58
  %21 = getelementptr inbounds nuw i8, ptr %20, i64 752
  %22 = load ptr, ptr %21, align 8, !tbaa !162
  %23 = getelementptr inbounds nuw i8, ptr %20, i64 760
  %24 = load i64, ptr %23, align 8, !tbaa !176
  %25 = call i32 @CBB_add_bytes(ptr noundef nonnull %5, ptr noundef %22, i64 noundef %24) #21
  %.not9 = icmp eq i32 %25, 0
  br i1 %.not9, label %28, label %26

26:                                               ; preds = %19
  %27 = call i32 @CBB_flush(ptr noundef %1) #21
  %.not10 = icmp ne i32 %27, 0
  %spec.select = zext i1 %.not10 to i32
  br label %28

28:                                               ; preds = %26, %11, %13, %15, %17, %19
  %.1 = phi i32 [ 0, %19 ], [ 0, %17 ], [ 0, %15 ], [ 0, %13 ], [ 0, %11 ], [ %spec.select, %26 ]
  call void @llvm.lifetime.end.p0(i64 32, ptr nonnull %5) #21
  call void @llvm.lifetime.end.p0(i64 32, ptr nonnull %4) #21
  call void @llvm.lifetime.end.p0(i64 32, ptr nonnull %3) #21
  br label %29

29:                                               ; preds = %2, %28
  %.0 = phi i32 [ %.1, %28 ], [ 1, %2 ]
  ret i32 %.0
}